target datalayout = "e-m:e-p270:32:32-p271:32:32-p272:64:64-i64:64-i128:128-f80:128-n8:16:32:64-S128"
target triple = "x86_64-pc-linux-gnu"

%struct.RBasic = type { i64, i64 }
%struct.obj_itr = type { ptr, ptr }

; Function Attrs: nounwind sspstrong uwtable
define internal i32 @heap_iter(ptr noundef %0, ptr noundef %1, i64 noundef %2, ptr noundef %3) #0 {
  %5 = alloca ptr, align 8
  %6 = alloca ptr, align 8
  %7 = alloca i64, align 8
  %8 = alloca ptr, align 8
  %9 = alloca ptr, align 8
  %10 = alloca i64, align 8
  %11 = alloca ptr, align 8
  store ptr %0, ptr %5, align 8, !tbaa !46
  store ptr %1, ptr %6, align 8, !tbaa !46
  store i64 %2, ptr %7, align 8, !tbaa !6
  store ptr %3, ptr %8, align 8, !tbaa !46
  call void @llvm.lifetime.start.p0(i64 8, ptr %9) #15
  %12 = load ptr, ptr %8, align 8, !tbaa !46
  store ptr %12, ptr %9, align 8, !tbaa !54
  call void @llvm.lifetime.start.p0(i64 8, ptr %10) #15
  %13 = load ptr, ptr %5, align 8, !tbaa !46
  %14 = ptrtoint ptr %13 to i64
  store i64 %14, ptr %10, align 8, !tbaa !6
  br label %15

15:                                               ; preds = %43, %4
  %16 = load i64, ptr %10, align 8, !tbaa !6
  %17 = load ptr, ptr %6, align 8, !tbaa !46
  %18 = ptrtoint ptr %17 to i64
  %19 = icmp ne i64 %16, %18
  br i1 %19, label %20, label %47

20:                                               ; preds = %15
  call void @llvm.lifetime.start.p0(i64 8, ptr %11) #15
  %21 = load i64, ptr %10, align 8, !tbaa !6
  %22 = call ptr @rb_asan_poisoned_object_p(i64 noundef %21)
  store ptr %22, ptr %11, align 8, !tbaa !46
  %23 = load i64, ptr %10, align 8, !tbaa !6
  call void @rb_asan_unpoison_object(i64 noundef %23, i1 noundef zeroext false)
  %24 = load i64, ptr %10, align 8, !tbaa !6
  %25 = inttoptr i64 %24 to ptr
  %26 = getelementptr inbounds nuw %struct.RBasic, ptr %25, i32 0, i32 0
  %27 = load i64, ptr %26, align 8, !tbaa !53
  %28 = icmp ne i64 %27, 0
  br i1 %28, label %29, label %37

29:                                               ; preds = %20
  %30 = load ptr, ptr %9, align 8, !tbaa !54
  %31 = getelementptr inbounds nuw %struct.obj_itr, ptr %30, i32 0, i32 0
  %32 = load ptr, ptr %31, align 8, !tbaa !47
  %33 = load i64, ptr %10, align 8, !tbaa !6
  %34 = load ptr, ptr %9, align 8, !tbaa !54
  %35 = getelementptr inbounds nuw %struct.obj_itr, ptr %34, i32 0, i32 1
  %36 = load ptr, ptr %35, align 8, !tbaa !49
  call void %32(i64 noundef %33, ptr noundef %36)
  br label %37

37:                                               ; preds = %29, %20
  %38 = load ptr, ptr %11, align 8, !tbaa !46
  %39 = icmp ne ptr %38, null
  br i1 %39, label %40, label %42

40:                                               ; preds = %37
  %41 = load i64, ptr %10, align 8, !tbaa !6
  call void @rb_asan_poison_object(i64 noundef %41)
  br label %42

42:                                               ; preds = %40, %37
  call void @llvm.lifetime.end.p0(i64 8, ptr %11) #15
  br label %43

43:                                               ; preds = %42
  %44 = load i64, ptr %7, align 8, !tbaa !6
  %45 = load i64, ptr %10, align 8, !tbaa !6
  %46 = add i64 %45, %44
  store i64 %46, ptr %10, align 8, !tbaa !6
  br label %15, !llvm.loop !56

47:                                               ; preds = %15
  call void @llvm.lifetime.end.p0(i64 8, ptr %10) #15
  call void @llvm.lifetime.end.p0(i64 8, ptr %9) #15
  ret i32 0
}