; Function Attrs: nounwind sspstrong uwtable
define internal noundef i32 @heap_iter(ptr noundef %0, ptr noundef %1, i64 noundef %2, ptr noundef readonly captures(none) %3) #0 {
  %5 = ptrtoint ptr %1 to i64
  %.not15 = icmp eq ptr %0, %1
  br i1 %.not15, label %._crit_edge, label %.lr.ph

.lr.ph:                                           ; preds = %4
  %6 = ptrtoint ptr %0 to i64
  %7 = getelementptr inbounds nuw i8, ptr %3, i64 8
  br label %8

8:                                                ; preds = %.lr.ph, %17
  %.016 = phi i64 [ %6, %.lr.ph ], [ %18, %17 ]
  %9 = tail call ptr @rb_asan_poisoned_object_p(i64 noundef %.016) #7
  tail call void @rb_asan_unpoison_object(i64 noundef %.016, i1 noundef zeroext false) #7
  %10 = inttoptr i64 %.016 to ptr
  %11 = load i64, ptr %10, align 8, !tbaa !32
  %.not13 = icmp eq i64 %11, 0
  br i1 %.not13, label %15, label %12

12:                                               ; preds = %8
  %13 = load ptr, ptr %3, align 8, !tbaa !10
  %14 = load ptr, ptr %7, align 8, !tbaa !13
  tail call void %13(i64 noundef %.016, ptr noundef %14) #7
  br label %15

15:                                               ; preds = %12, %8
  %.not14 = icmp eq ptr %9, null
  br i1 %.not14, label %17, label %16

16:                                               ; preds = %15
  tail call void @rb_asan_poison_object(i64 noundef %.016) #7
  br label %17

17:                                               ; preds = %16, %15
  %18 = add i64 %.016, %2
  %.not = icmp eq i64 %18, %5
  br i1 %.not, label %._crit_edge, label %8, !llvm.loop !37

._crit_edge:                                      ; preds = %17, %4
  ret i32 0
}